; Function Attrs: mustprogress nounwind uwtable
define void @_ZN3zmq4fq_tD2Ev(ptr noundef nonnull readonly align 8 captures(none) dereferenceable(41) %0) unnamed_addr #1 align 2 personality ptr @__gxx_personality_v0 {
  %2 = load ptr, ptr %0, align 8, !tbaa !3
  %3 = getelementptr inbounds nuw i8, ptr %0, i64 8
  %4 = load ptr, ptr %3, align 8, !tbaa !3
  %5 = icmp eq ptr %2, %4
  br i1 %5, label %11, label %6, !prof !9

6:                                                ; preds = %1
  %7 = load ptr, ptr @stderr, align 8, !tbaa !10
  %8 = tail call i32 (ptr, ptr, ...) @fprintf(ptr noundef %7, ptr noundef nonnull @.str, ptr noundef nonnull @.str.1, ptr noundef nonnull @.str.2, i32 noundef 15) #17
  %9 = load ptr, ptr @stderr, align 8, !tbaa !10
  %10 = tail call i32 @fflush(ptr noundef %9)
  invoke void @_ZN3zmq9zmq_abortEPKc(ptr noundef nonnull @.str.1)
          to label %thread-pre-split unwind label %14

thread-pre-split:                                 ; preds = %6
  %.pr = load ptr, ptr %0, align 8, !tbaa !12
  br label %11

11:                                               ; preds = %thread-pre-split, %1
  %12 = phi ptr [ %.pr, %thread-pre-split ], [ %2, %1 ]
  %.not.i.i.i.i = icmp eq ptr %12, null
  br i1 %.not.i.i.i.i, label %_ZN3zmq7array_tINS_6pipe_tELi1EED2Ev.exit, label %13

13:                                               ; preds = %11
  tail call void @_ZdlPv(ptr noundef nonnull %12) #18
  br label %_ZN3zmq7array_tINS_6pipe_tELi1EED2Ev.exit

_ZN3zmq7array_tINS_6pipe_tELi1EED2Ev.exit:        ; preds = %11, %13
  ret void

14:                                               ; preds = %6
  %15 = landingpad { ptr, i32 }
          catch ptr null
  %16 = extractvalue { ptr, i32 } %15, 0
  tail call void @__clang_call_terminate(ptr %16) #19
  unreachable
}